; ModuleID = '57/2396.c'
source_filename = "57/2396.c"
target datalayout = "e-m:e-p270:32:32-p271:32:32-p272:64:64-i64:64-f80:128-n8:16:32:64-S128"
target triple = "x86_64-pc-linux-gnu"

@.str = private unnamed_addr constant [3 x i8] c"%d\00", align 1
@.str.1 = private unnamed_addr constant [3 x i8] c"%s\00", align 1
@.str.2 = private unnamed_addr constant [4 x i8] c"%s\0A\00", align 1

; Function Attrs: noinline nounwind uwtable
define dso_local i32 @main() #0 {
  %1 = alloca i32, align 4
  %2 = alloca i32, align 4
  %3 = alloca i32, align 4
  %4 = alloca [50 x [10 x i8]], align 16
  store i32 0, i32* %1, align 4
  %5 = call i32 (i8*, ...) @__isoc99_scanf(i8* getelementptr inbounds ([3 x i8], [3 x i8]* @.str, i64 0, i64 0), i32* %2)
  store i32 0, i32* %3, align 4
  br label %6

6:                                                ; preds = %16, %0
  %7 = load i32, i32* %3, align 4
  %8 = load i32, i32* %2, align 4
  %9 = icmp slt i32 %7, %8
  br i1 %9, label %10, label %19

10:                                               ; preds = %6
  %11 = load i32, i32* %3, align 4
  %12 = sext i32 %11 to i64
  %13 = getelementptr inbounds [50 x [10 x i8]], [50 x [10 x i8]]* %4, i64 0, i64 %12
  %14 = getelementptr inbounds [10 x i8], [10 x i8]* %13, i64 0, i64 0
  %15 = call i32 (i8*, ...) @__isoc99_scanf(i8* getelementptr inbounds ([3 x i8], [3 x i8]* @.str.1, i64 0, i64 0), i8* %14)
  br label %16

16:                                               ; preds = %10
  %17 = load i32, i32* %3, align 4
  %18 = add nsw i32 %17, 1
  store i32 %18, i32* %3, align 4
  br label %6

19:                                               ; preds = %6
  store i32 0, i32* %3, align 4
  br label %20

20:                                               ; preds = %75, %19
  %21 = load i32, i32* %3, align 4
  %22 = load i32, i32* %2, align 4
  %23 = icmp slt i32 %21, %22
  br i1 %23, label %24, label %78

24:                                               ; preds = %20
  %25 = load i32, i32* %3, align 4
  %26 = sext i32 %25 to i64
  %27 = getelementptr inbounds [50 x [10 x i8]], [50 x [10 x i8]]* %4, i64 0, i64 %26
  %28 = load i32, i32* %3, align 4
  %29 = sext i32 %28 to i64
  %30 = getelementptr inbounds [50 x [10 x i8]], [50 x [10 x i8]]* %4, i64 0, i64 %29
  %31 = getelementptr inbounds [10 x i8], [10 x i8]* %30, i64 0, i64 0
  %32 = call i64 @strlen(i8* %31) #3
  %33 = sub i64 %32, 2
  %34 = getelementptr inbounds [10 x i8], [10 x i8]* %27, i64 0, i64 %33
  %35 = load i8, i8* %34, align 1
  %36 = sext i8 %35 to i32
  %37 = icmp eq i32 %36, 101
  br i1 %37, label %52, label %38

38:                                               ; preds = %24
  %39 = load i32, i32* %3, align 4
  %40 = sext i32 %39 to i64
  %41 = getelementptr inbounds [50 x [10 x i8]], [50 x [10 x i8]]* %4, i64 0, i64 %40
  %42 = load i32, i32* %3, align 4
  %43 = sext i32 %42 to i64
  %44 = getelementptr inbounds [50 x [10 x i8]], [50 x [10 x i8]]* %4, i64 0, i64 %43
  %45 = getelementptr inbounds [10 x i8], [10 x i8]* %44, i64 0, i64 0
  %46 = call i64 @strlen(i8* %45) #3
  %47 = sub i64 %46, 2
  %48 = getelementptr inbounds [10 x i8], [10 x i8]* %41, i64 0, i64 %47
  %49 = load i8, i8* %48, align 1
  %50 = sext i8 %49 to i32
  %51 = icmp eq i32 %50, 108
  br i1 %51, label %52, label %63

52:                                               ; preds = %38, %24
  %53 = load i32, i32* %3, align 4
  %54 = sext i32 %53 to i64
  %55 = getelementptr inbounds [50 x [10 x i8]], [50 x [10 x i8]]* %4, i64 0, i64 %54
  %56 = load i32, i32* %3, align 4
  %57 = sext i32 %56 to i64
  %58 = getelementptr inbounds [50 x [10 x i8]], [50 x [10 x i8]]* %4, i64 0, i64 %57
  %59 = getelementptr inbounds [10 x i8], [10 x i8]* %58, i64 0, i64 0
  %60 = call i64 @strlen(i8* %59) #3
  %61 = sub i64 %60, 2
  %62 = getelementptr inbounds [10 x i8], [10 x i8]* %55, i64 0, i64 %61
  store i8 0, i8* %62, align 1
  br label %74

63:                                               ; preds = %38
  %64 = load i32, i32* %3, align 4
  %65 = sext i32 %64 to i64
  %66 = getelementptr inbounds [50 x [10 x i8]], [50 x [10 x i8]]* %4, i64 0, i64 %65
  %67 = load i32, i32* %3, align 4
  %68 = sext i32 %67 to i64
  %69 = getelementptr inbounds [50 x [10 x i8]], [50 x [10 x i8]]* %4, i64 0, i64 %68
  %70 = getelementptr inbounds [10 x i8], [10 x i8]* %69, i64 0, i64 0
  %71 = call i64 @strlen(i8* %70) #3
  %72 = sub i64 %71, 3
  %73 = getelementptr inbounds [10 x i8], [10 x i8]* %66, i64 0, i64 %72
  store i8 0, i8* %73, align 1
  br label %74

74:                                               ; preds = %63, %52
  br label %75

75:                                               ; preds = %74
  %76 = load i32, i32* %3, align 4
  %77 = add nsw i32 %76, 1
  store i32 %77, i32* %3, align 4
  br label %20

78:                                               ; preds = %20
  store i32 0, i32* %3, align 4
  br label %79

79:                                               ; preds = %89, %78
  %80 = load i32, i32* %3, align 4
  %81 = load i32, i32* %2, align 4
  %82 = icmp slt i32 %80, %81
  br i1 %82, label %83, label %92

83:                                               ; preds = %79
  %84 = load i32, i32* %3, align 4
  %85 = sext i32 %84 to i64
  %86 = getelementptr inbounds [50 x [10 x i8]], [50 x [10 x i8]]* %4, i64 0, i64 %85
  %87 = getelementptr inbounds [10 x i8], [10 x i8]* %86, i64 0, i64 0
  %88 = call i32 (i8*, ...) @printf(i8* getelementptr inbounds ([4 x i8], [4 x i8]* @.str.2, i64 0, i64 0), i8* %87)
  br label %89

89:                                               ; preds = %83
  %90 = load i32, i32* %3, align 4
  %91 = add nsw i32 %90, 1
  store i32 %91, i32* %3, align 4
  br label %79

92:                                               ; preds = %79
  ret i32 0
}

declare dso_local i32 @__isoc99_scanf(i8*, ...) #1

; Function Attrs: nounwind readonly
declare dso_local i64 @strlen(i8*) #2

declare dso_local i32 @printf(i8*, ...) #1


!llvm.module.flags = !{!0}
!llvm.ident = !{!1}

!0 = !{i32 1, !"wchar_size", i32 4}
!1 = !{!"clang version 10.0.0-4ubuntu1 "}
